target datalayout = "e-m:e-p270:32:32-p271:32:32-p272:64:64-i64:64-i128:128-f80:128-n8:16:32:64-S128"
target triple = "x86_64-pc-linux-gnu"

%struct.nameData = type { [64 x i8] }
%struct.StringInfoData = type { ptr, i32, i32, i32 }

@.str.6 = private unnamed_addr constant [7 x i8] c"slot.c\00", align 1
@.str.56 = private unnamed_addr constant [61 x i8] c"The slot's restart_lsn %X/%X exceeds the limit by %llu byte.\00", align 1
@.str.57 = private unnamed_addr constant [62 x i8] c"The slot's restart_lsn %X/%X exceeds the limit by %llu bytes.\00", align 1
@.str.58 = private unnamed_addr constant [41 x i8] c"The slot conflicted with xid horizon %u.\00", align 1
@.str.59 = private unnamed_addr constant [85 x i8] c"Logical decoding on standby requires \22wal_level\22 >= \22logical\22 on the primary server.\00", align 1
@.str.60 = private unnamed_addr constant [56 x i8] c"terminating process %d to release replication slot \22%s\22\00", align 1
@.str.61 = private unnamed_addr constant [44 x i8] c"invalidating obsolete replication slot \22%s\22\00", align 1
@.str.62 = private unnamed_addr constant [3 x i8] c"%s\00", align 1
@.str.63 = private unnamed_addr constant [33 x i8] c"You might need to increase \22%s\22.\00", align 1
@.str.64 = private unnamed_addr constant [23 x i8] c"max_slot_wal_keep_size\00", align 1
@__func__.ReportSlotInvalidation = private unnamed_addr constant [23 x i8] c"ReportSlotInvalidation\00", align 1

; Function Attrs: nounwind uwtable
define internal void @ReportSlotInvalidation(i32 noundef %0, i1 noundef zeroext %1, i32 noundef %2, ptr noundef byval(%struct.nameData) align 8 %3, i64 noundef %4, i64 noundef %5, i32 noundef %6) #0 {
  %8 = alloca i32, align 4
  %9 = alloca i8, align 1
  %10 = alloca i32, align 4
  %11 = alloca i64, align 8
  %12 = alloca i64, align 8
  %13 = alloca i32, align 4
  %14 = alloca %struct.StringInfoData, align 8
  %15 = alloca i8, align 1
  %16 = alloca i64, align 8
  %17 = alloca i32, align 4
  store i32 %0, ptr %8, align 4
  %18 = zext i1 %1 to i8
  store i8 %18, ptr %9, align 1
  store i32 %2, ptr %10, align 4
  store i64 %4, ptr %11, align 8
  store i64 %5, ptr %12, align 8
  store i32 %6, ptr %13, align 4
  call void @llvm.lifetime.start.p0(i64 24, ptr %14) #12
  call void @llvm.lifetime.start.p0(i64 1, ptr %15) #12
  store i8 0, ptr %15, align 1
  call void @initStringInfo(ptr noundef %14)
  %19 = load i32, ptr %8, align 4
  switch i32 %19, label %40 [
    i32 1, label %20
    i32 2, label %36
    i32 3, label %38
    i32 0, label %39
  ]

20:                                               ; preds = %7
  call void @llvm.lifetime.start.p0(i64 8, ptr %16) #12
  %21 = load i64, ptr %12, align 8
  %22 = load i64, ptr %11, align 8
  %23 = sub i64 %21, %22
  store i64 %23, ptr %16, align 8
  store i8 1, ptr %15, align 1
  %24 = load i64, ptr %16, align 8
  %25 = icmp eq i64 %24, 1
  %26 = select i1 %25, ptr @.str.56, ptr @.str.57
  br label %27

27:                                               ; preds = %20
  br label %28

28:                                               ; preds = %27
  br label %29

29:                                               ; preds = %28
  store i32 1, ptr %17, align 4
  %30 = load i64, ptr %11, align 8
  %31 = lshr i64 %30, 32
  %32 = trunc i64 %31 to i32
  %33 = load i64, ptr %11, align 8
  %34 = trunc i64 %33 to i32
  %35 = load i64, ptr %16, align 8
  call void (ptr, ptr, ...) @appendStringInfo(ptr noundef %14, ptr noundef %26, i32 noundef %32, i32 noundef %34, i64 noundef %35)
  call void @llvm.lifetime.end.p0(i64 8, ptr %16) #12
  br label %40

36:                                               ; preds = %7
  %37 = load i32, ptr %13, align 4
  call void (ptr, ptr, ...) @appendStringInfo(ptr noundef %14, ptr noundef @.str.58, i32 noundef %37)
  br label %40

38:                                               ; preds = %7
  call void @appendStringInfoString(ptr noundef %14, ptr noundef @.str.59)
  br label %40

39:                                               ; preds = %7
  unreachable

40:                                               ; preds = %7, %38, %36, %29
  br label %41

41:                                               ; preds = %40
  br i1 false, label %42, label %44

42:                                               ; preds = %41
  %43 = call zeroext i1 @errstart_cold(i32 noundef 15, ptr noundef null) #14
  br i1 %43, label %46, label %68

44:                                               ; preds = %41
  %45 = call zeroext i1 @errstart(i32 noundef 15, ptr noundef null)
  br i1 %45, label %46, label %68

46:                                               ; preds = %44, %42
  %47 = load i8, ptr %9, align 1, !range !4, !noundef !5
  %48 = trunc i8 %47 to i1
  br i1 %48, label %49, label %54

49:                                               ; preds = %46
  %50 = load i32, ptr %10, align 4
  %51 = getelementptr inbounds nuw %struct.nameData, ptr %3, i32 0, i32 0
  %52 = getelementptr inbounds [64 x i8], ptr %51, i64 0, i64 0
  %53 = call i32 (ptr, ...) @errmsg(ptr noundef @.str.60, i32 noundef %50, ptr noundef %52)
  br label %58

54:                                               ; preds = %46
  %55 = getelementptr inbounds nuw %struct.nameData, ptr %3, i32 0, i32 0
  %56 = getelementptr inbounds [64 x i8], ptr %55, i64 0, i64 0
  %57 = call i32 (ptr, ...) @errmsg(ptr noundef @.str.61, ptr noundef %56)
  br label %58

58:                                               ; preds = %54, %49
  %59 = getelementptr inbounds nuw %struct.StringInfoData, ptr %14, i32 0, i32 0
  %60 = load ptr, ptr %59, align 8
  %61 = call i32 (ptr, ...) @errdetail_internal(ptr noundef @.str.62, ptr noundef %60)
  %62 = load i8, ptr %15, align 1, !range !4, !noundef !5
  %63 = trunc i8 %62 to i1
  br i1 %63, label %64, label %66

64:                                               ; preds = %58
  %65 = call i32 (ptr, ...) @errhint(ptr noundef @.str.63, ptr noundef @.str.64)
  br label %67

66:                                               ; preds = %58
  br label %67

67:                                               ; preds = %66, %64
  call void @errfinish(ptr noundef @.str.6, i32 noundef 1556, ptr noundef @__func__.ReportSlotInvalidation)
  br label %68

68:                                               ; preds = %67, %44, %42
  br label %69

69:                                               ; preds = %68
  br label %70

70:                                               ; preds = %69
  %71 = getelementptr inbounds nuw %struct.StringInfoData, ptr %14, i32 0, i32 0
  %72 = load ptr, ptr %71, align 8
  call void @pfree(ptr noundef %72)
  call void @llvm.lifetime.end.p0(i64 1, ptr %15) #12
  call void @llvm.lifetime.end.p0(i64 24, ptr %14) #12
  ret void
}