; Function Attrs: nounwind uwtable
define internal fastcc void @ReportSlotInvalidation(i32 noundef range(i32 1, 4) %0, i1 noundef zeroext %1, i32 noundef %2, ptr noundef byval(%struct.nameData) align 8 %3, i64 noundef %4, i64 noundef %5, i32 noundef %6) unnamed_addr #0 {
  %8 = alloca %struct.StringInfoData, align 8
  call void @llvm.lifetime.start.p0(i64 24, ptr nonnull %8) #17
  call void @initStringInfo(ptr noundef nonnull %8) #17
  switch i32 %0, label %default.unreachable11 [
    i32 1, label %9
    i32 2, label %16
    i32 3, label %17
  ]

9:                                                ; preds = %7
  %10 = sub i64 %5, %4
  %11 = icmp eq i64 %10, 1
  %12 = select i1 %11, ptr @.str.56, ptr @.str.57
  %13 = lshr i64 %4, 32
  %14 = trunc nuw i64 %13 to i32
  %15 = trunc i64 %4 to i32
  call void (ptr, ptr, ...) @appendStringInfo(ptr noundef nonnull %8, ptr noundef nonnull %12, i32 noundef %14, i32 noundef %15, i64 noundef %10) #17
  br label %18

16:                                               ; preds = %7
  call void (ptr, ptr, ...) @appendStringInfo(ptr noundef nonnull %8, ptr noundef nonnull @.str.58, i32 noundef %6) #17
  br label %18

17:                                               ; preds = %7
  call void @appendStringInfoString(ptr noundef nonnull %8, ptr noundef nonnull @.str.59) #17
  br label %18

default.unreachable11:                            ; preds = %7
  unreachable

18:                                               ; preds = %17, %16, %9
  %.0 = phi i1 [ false, %17 ], [ false, %16 ], [ true, %9 ]
  %19 = call zeroext i1 @errstart(i32 noundef 15, ptr noundef null) #17
  br i1 %19, label %20, label %31

20:                                               ; preds = %18
  br i1 %1, label %21, label %23

21:                                               ; preds = %20
  %22 = call i32 (ptr, ...) @errmsg(ptr noundef nonnull @.str.60, i32 noundef %2, ptr noundef nonnull %3) #17
  br label %25

23:                                               ; preds = %20
  %24 = call i32 (ptr, ...) @errmsg(ptr noundef nonnull @.str.61, ptr noundef nonnull %3) #17
  br label %25

25:                                               ; preds = %23, %21
  %26 = load ptr, ptr %8, align 8
  %27 = call i32 (ptr, ...) @errdetail_internal(ptr noundef nonnull @.str.62, ptr noundef %26) #17
  br i1 %.0, label %28, label %30

28:                                               ; preds = %25
  %29 = call i32 (ptr, ...) @errhint(ptr noundef nonnull @.str.63, ptr noundef nonnull @.str.64) #17
  br label %30

30:                                               ; preds = %25, %28
  call void @errfinish(ptr noundef nonnull @.str.6, i32 noundef 1556, ptr noundef nonnull @__func__.ReportSlotInvalidation) #17
  br label %31

31:                                               ; preds = %30, %18
  %32 = load ptr, ptr %8, align 8
  call void @pfree(ptr noundef %32) #17
  call void @llvm.lifetime.end.p0(i64 24, ptr nonnull %8) #17
  ret void
}